; Function Attrs: mustprogress uwtable
define dso_local { ptr, ptr } @_ZN4Luau6Parser21parseSimpleTypeOrPackEv(ptr noundef nonnull align 8 dereferenceable(1072) %0) local_unnamed_addr #2 align 2 {
  %2 = alloca %"struct.Luau::Location", align 4
  %3 = getelementptr inbounds nuw i8, ptr %0, i64 276
  %4 = load i32, ptr %3, align 4, !tbaa !287
  call void @llvm.lifetime.start.p0(i64 16, ptr nonnull %2) #29
  %5 = getelementptr inbounds nuw i8, ptr %0, i64 132
  call void @llvm.memcpy.p0.p0.i64(ptr noundef nonnull align 4 dereferenceable(16) %2, ptr noundef nonnull align 4 dereferenceable(16) %5, i64 16, i1 false), !tbaa.struct !10
  %6 = tail call { ptr, ptr } @_ZN4Luau6Parser15parseSimpleTypeEbb(ptr noundef nonnull align 8 dereferenceable(1072) %0, i1 noundef zeroext true, i1 noundef zeroext false)
  %7 = extractvalue { ptr, ptr } %6, 1
  %.not = icmp eq ptr %7, null
  br i1 %.not, label %8, label %11

8:                                                ; preds = %1
  %9 = extractvalue { ptr, ptr } %6, 0
  store i32 %4, ptr %3, align 4, !tbaa !287
  %10 = call noundef ptr @_ZN4Luau6Parser15parseTypeSuffixEPNS_7AstTypeERKNS_8LocationE(ptr noundef nonnull align 8 dereferenceable(1072) %0, ptr noundef %9, ptr noundef nonnull align 4 dereferenceable(16) %2)
  br label %11

11:                                               ; preds = %1, %8
  %.sroa.02.0 = phi ptr [ %10, %8 ], [ null, %1 ]
  call void @llvm.lifetime.end.p0(i64 16, ptr nonnull %2) #29
  %.fca.0.insert = insertvalue { ptr, ptr } poison, ptr %.sroa.02.0, 0
  %.fca.1.insert = insertvalue { ptr, ptr } %.fca.0.insert, ptr %7, 1
  ret { ptr, ptr } %.fca.1.insert
}